target datalayout = "e-m:e-p270:32:32-p271:32:32-p272:64:64-i64:64-i128:128-f80:128-n8:16:32:64-S128"
target triple = "x86_64-pc-linux-gnu"

%struct.mbedtls_pem_context = type { ptr, i64, ptr }

@.str = private unnamed_addr constant [36 x i8] c"-----BEGIN CERTIFICATE REQUEST-----\00", align 1
@.str.1 = private unnamed_addr constant [34 x i8] c"-----END CERTIFICATE REQUEST-----\00", align 1
@.str.2 = private unnamed_addr constant [40 x i8] c"-----BEGIN NEW CERTIFICATE REQUEST-----\00", align 1
@.str.3 = private unnamed_addr constant [38 x i8] c"-----END NEW CERTIFICATE REQUEST-----\00", align 1

; Function Attrs: nounwind uwtable
define hidden i32 @mbedtls_x509_csr_parse_der(ptr noundef %0, ptr noundef %1, i64 noundef %2) #0 {
  %4 = alloca ptr, align 8
  %5 = alloca ptr, align 8
  %6 = alloca i64, align 8
  store ptr %0, ptr %4, align 8, !tbaa !3
  store ptr %1, ptr %5, align 8, !tbaa !8
  store i64 %2, ptr %6, align 8, !tbaa !10
  %7 = load ptr, ptr %4, align 8, !tbaa !3
  %8 = load ptr, ptr %5, align 8, !tbaa !8
  %9 = load i64, ptr %6, align 8, !tbaa !10
  %10 = call i32 @mbedtls_x509_csr_parse_der_internal(ptr noundef %7, ptr noundef %8, i64 noundef %9, ptr noundef null, ptr noundef null)
  ret i32 %10
}

; Function Attrs: nounwind uwtable
define hidden i32 @mbedtls_x509_csr_parse(ptr noundef %0, ptr noundef %1, i64 noundef %2) #0 {
  %4 = alloca i32, align 4
  %5 = alloca ptr, align 8
  %6 = alloca ptr, align 8
  %7 = alloca i64, align 8
  %8 = alloca i32, align 4
  %9 = alloca i64, align 8
  %10 = alloca %struct.mbedtls_pem_context, align 8
  %11 = alloca i32, align 4
  store ptr %0, ptr %5, align 8, !tbaa !3
  store ptr %1, ptr %6, align 8, !tbaa !8
  store i64 %2, ptr %7, align 8, !tbaa !10
  call void @llvm.lifetime.start.p0(i64 4, ptr %8) #9
  store i32 -110, ptr %8, align 4, !tbaa !13
  call void @llvm.lifetime.start.p0(i64 8, ptr %9) #9
  call void @llvm.lifetime.start.p0(i64 24, ptr %10) #9
  %12 = load ptr, ptr %5, align 8, !tbaa !3
  %13 = icmp eq ptr %12, null
  br i1 %13, label %20, label %14

14:                                               ; preds = %3
  %15 = load ptr, ptr %6, align 8, !tbaa !8
  %16 = icmp eq ptr %15, null
  br i1 %16, label %20, label %17

17:                                               ; preds = %14
  %18 = load i64, ptr %7, align 8, !tbaa !10
  %19 = icmp eq i64 %18, 0
  br i1 %19, label %20, label %21

20:                                               ; preds = %17, %14, %3
  store i32 -10240, ptr %4, align 4
  store i32 1, ptr %11, align 4
  br label %58

21:                                               ; preds = %17
  %22 = load ptr, ptr %6, align 8, !tbaa !8
  %23 = load i64, ptr %7, align 8, !tbaa !10
  %24 = sub i64 %23, 1
  %25 = getelementptr inbounds nuw i8, ptr %22, i64 %24
  %26 = load i8, ptr %25, align 1, !tbaa !30
  %27 = zext i8 %26 to i32
  %28 = icmp eq i32 %27, 0
  br i1 %28, label %29, label %53

29:                                               ; preds = %21
  call void @mbedtls_pem_init(ptr noundef %10)
  %30 = load ptr, ptr %6, align 8, !tbaa !8
  %31 = call i32 @mbedtls_pem_read_buffer(ptr noundef %10, ptr noundef @.str, ptr noundef @.str.1, ptr noundef %30, ptr noundef null, i64 noundef 0, ptr noundef %9)
  store i32 %31, ptr %8, align 4, !tbaa !13
  %32 = load i32, ptr %8, align 4, !tbaa !13
  %33 = icmp eq i32 %32, -4224
  br i1 %33, label %34, label %37

34:                                               ; preds = %29
  %35 = load ptr, ptr %6, align 8, !tbaa !8
  %36 = call i32 @mbedtls_pem_read_buffer(ptr noundef %10, ptr noundef @.str.2, ptr noundef @.str.3, ptr noundef %35, ptr noundef null, i64 noundef 0, ptr noundef %9)
  store i32 %36, ptr %8, align 4, !tbaa !13
  br label %37

37:                                               ; preds = %34, %29
  %38 = load i32, ptr %8, align 4, !tbaa !13
  %39 = icmp eq i32 %38, 0
  br i1 %39, label %40, label %47

40:                                               ; preds = %37
  %41 = load ptr, ptr %5, align 8, !tbaa !3
  %42 = getelementptr inbounds nuw %struct.mbedtls_pem_context, ptr %10, i32 0, i32 0
  %43 = load ptr, ptr %42, align 8, !tbaa !31
  %44 = getelementptr inbounds nuw %struct.mbedtls_pem_context, ptr %10, i32 0, i32 1
  %45 = load i64, ptr %44, align 8, !tbaa !33
  %46 = call i32 @mbedtls_x509_csr_parse_der(ptr noundef %41, ptr noundef %43, i64 noundef %45)
  store i32 %46, ptr %8, align 4, !tbaa !13
  br label %47

47:                                               ; preds = %40, %37
  call void @mbedtls_pem_free(ptr noundef %10)
  %48 = load i32, ptr %8, align 4, !tbaa !13
  %49 = icmp ne i32 %48, -4224
  br i1 %49, label %50, label %52

50:                                               ; preds = %47
  %51 = load i32, ptr %8, align 4, !tbaa !13
  store i32 %51, ptr %4, align 4
  store i32 1, ptr %11, align 4
  br label %58

52:                                               ; preds = %47
  br label %53

53:                                               ; preds = %52, %21
  %54 = load ptr, ptr %5, align 8, !tbaa !3
  %55 = load ptr, ptr %6, align 8, !tbaa !8
  %56 = load i64, ptr %7, align 8, !tbaa !10
  %57 = call i32 @mbedtls_x509_csr_parse_der(ptr noundef %54, ptr noundef %55, i64 noundef %56)
  store i32 %57, ptr %4, align 4
  store i32 1, ptr %11, align 4
  br label %58

58:                                               ; preds = %53, %50, %20
  call void @llvm.lifetime.end.p0(i64 24, ptr %10) #9
  call void @llvm.lifetime.end.p0(i64 8, ptr %9) #9
  call void @llvm.lifetime.end.p0(i64 4, ptr %8) #9
  %59 = load i32, ptr %4, align 4
  ret i32 %59
}