; Function Attrs: nounwind uwtable
define hidden i32 @mbedtls_x509_csr_parse(ptr noundef %0, ptr noundef %1, i64 noundef %2) local_unnamed_addr #0 {
  %4 = alloca i64, align 8
  %5 = alloca %struct.mbedtls_pem_context, align 8
  call void @llvm.lifetime.start.p0(i64 8, ptr nonnull %4) #10
  call void @llvm.lifetime.start.p0(i64 24, ptr nonnull %5) #10
  %6 = icmp eq ptr %0, null
  %7 = icmp eq ptr %1, null
  %or.cond = or i1 %6, %7
  %8 = icmp eq i64 %2, 0
  %or.cond3 = or i1 %or.cond, %8
  br i1 %or.cond3, label %29, label %9

9:                                                ; preds = %3
  %10 = getelementptr i8, ptr %1, i64 %2
  %11 = getelementptr i8, ptr %10, i64 -1
  %12 = load i8, ptr %11, align 1, !tbaa !29
  %13 = icmp eq i8 %12, 0
  br i1 %13, label %14, label %27

14:                                               ; preds = %9
  call void @mbedtls_pem_init(ptr noundef nonnull %5) #10
  %15 = call i32 @mbedtls_pem_read_buffer(ptr noundef nonnull %5, ptr noundef nonnull @.str, ptr noundef nonnull @.str.1, ptr noundef nonnull %1, ptr noundef null, i64 noundef 0, ptr noundef nonnull %4) #10
  %16 = icmp eq i32 %15, -4224
  br i1 %16, label %17, label %19

17:                                               ; preds = %14
  %18 = call i32 @mbedtls_pem_read_buffer(ptr noundef nonnull %5, ptr noundef nonnull @.str.2, ptr noundef nonnull @.str.3, ptr noundef nonnull %1, ptr noundef null, i64 noundef 0, ptr noundef nonnull %4) #10
  br label %19

19:                                               ; preds = %17, %14
  %.0 = phi i32 [ %18, %17 ], [ %15, %14 ]
  %20 = icmp eq i32 %.0, 0
  br i1 %20, label %21, label %26

21:                                               ; preds = %19
  %22 = load ptr, ptr %5, align 8, !tbaa !30
  %23 = getelementptr inbounds nuw i8, ptr %5, i64 8
  %24 = load i64, ptr %23, align 8, !tbaa !32
  %25 = call fastcc i32 @mbedtls_x509_csr_parse_der_internal(ptr noundef nonnull %0, ptr noundef %22, i64 noundef %24, ptr noundef null, ptr noundef null)
  br label %26

26:                                               ; preds = %21, %19
  %.1 = phi i32 [ %25, %21 ], [ %.0, %19 ]
  call void @mbedtls_pem_free(ptr noundef nonnull %5) #10
  %.not = icmp eq i32 %.1, -4224
  br i1 %.not, label %27, label %29

27:                                               ; preds = %26, %9
  %28 = call fastcc i32 @mbedtls_x509_csr_parse_der_internal(ptr noundef nonnull %0, ptr noundef nonnull %1, i64 noundef %2, ptr noundef null, ptr noundef null)
  br label %29

29:                                               ; preds = %26, %3, %27
  %.018 = phi i32 [ %28, %27 ], [ -10240, %3 ], [ %.1, %26 ]
  call void @llvm.lifetime.end.p0(i64 24, ptr nonnull %5) #10
  call void @llvm.lifetime.end.p0(i64 8, ptr nonnull %4) #10
  ret i32 %.018
}